; Function Attrs: mustprogress uwtable
define void @_ZN6icu_7714ResourceBundleC2ERKS0_(ptr noundef nonnull align 8 dereferenceable(24) initializes((0, 8), (16, 24)) %0, ptr noundef nonnull readonly align 8 captures(none) dereferenceable(24) %1) unnamed_addr #1 align 2 personality ptr @__gxx_personality_v0 {
  %3 = alloca i32, align 4
  store ptr getelementptr inbounds nuw inrange(-16, 24) (i8, ptr @_ZTVN6icu_7714ResourceBundleE, i64 16), ptr %0, align 8, !tbaa !3
  %4 = getelementptr inbounds nuw i8, ptr %0, i64 16
  store ptr null, ptr %4, align 8, !tbaa !6
  call void @llvm.lifetime.start.p0(i64 4, ptr nonnull %3) #8
  store i32 0, ptr %3, align 4, !tbaa !18
  %5 = getelementptr inbounds nuw i8, ptr %1, i64 8
  %6 = load ptr, ptr %5, align 8, !tbaa !17
  %.not = icmp eq ptr %6, null
  br i1 %.not, label %11, label %7

7:                                                ; preds = %2
  %8 = invoke ptr @ures_copyResb_77(ptr noundef null, ptr noundef nonnull %6, ptr noundef nonnull %3)
          to label %11 unwind label %9

9:                                                ; preds = %7
  %10 = landingpad { ptr, i32 }
          cleanup
  call void @llvm.lifetime.end.p0(i64 4, ptr nonnull %3) #8
  call void @_ZN6icu_777UObjectD2Ev(ptr noundef nonnull align 8 dereferenceable(8) %0) #8
  resume { ptr, i32 } %10

11:                                               ; preds = %2, %7
  %.sink = phi ptr [ %8, %7 ], [ null, %2 ]
  %12 = getelementptr inbounds nuw i8, ptr %0, i64 8
  store ptr %.sink, ptr %12, align 8, !tbaa !17
  call void @llvm.lifetime.end.p0(i64 4, ptr nonnull %3) #8
  ret void
}